target datalayout = "e-m:e-p270:32:32-p271:32:32-p272:64:64-i64:64-i128:128-f80:128-n8:16:32:64-S128"
target triple = "x86_64-pc-linux-gnu"

@.str = private unnamed_addr constant [28 x i8] c"../openssl/test/ecdsatest.c\00", align 1
@.str.15 = private unnamed_addr constant [2 x i8] c"0\00", align 1
@numbers = internal global [2 x ptr] zeroinitializer, align 16
@fbytes.fbytes_counter = internal global i32 0, align 4
@.str.4417 = private unnamed_addr constant [15 x i8] c"tmp = BN_new()\00", align 1
@.str.4418 = private unnamed_addr constant [15 x i8] c"fbytes_counter\00", align 1
@.str.4419 = private unnamed_addr constant [20 x i8] c"OSSL_NELEM(numbers)\00", align 1
@.str.4420 = private unnamed_addr constant [41 x i8] c"BN_hex2bn(&tmp, numbers[fbytes_counter])\00", align 1
@.str.4421 = private unnamed_addr constant [18 x i8] c"BN_num_bytes(tmp)\00", align 1
@.str.4422 = private unnamed_addr constant [4 x i8] c"num\00", align 1
@.str.4423 = private unnamed_addr constant [28 x i8] c"BN_bn2binpad(tmp, buf, num)\00", align 1

; Function Attrs: nounwind uwtable
define internal i32 @fbytes(ptr noundef %0, i64 noundef %1, ptr noundef %2, ptr noundef %3) #0 {
  %5 = alloca ptr, align 8
  %6 = alloca i64, align 8
  %7 = alloca ptr, align 8
  %8 = alloca ptr, align 8
  %9 = alloca i32, align 4
  %10 = alloca ptr, align 8
  store ptr %0, ptr %5, align 8, !tbaa !16
  store i64 %1, ptr %6, align 8, !tbaa !9
  store ptr %2, ptr %7, align 8, !tbaa !16
  store ptr %3, ptr %8, align 8, !tbaa !40
  call void @llvm.lifetime.start.p0(i64 4, ptr %9) #4
  store i32 0, ptr %9, align 4, !tbaa !12
  call void @llvm.lifetime.start.p0(i64 8, ptr %10) #4
  store ptr null, ptr %10, align 8, !tbaa !18
  %11 = load ptr, ptr %8, align 8, !tbaa !40
  call void @fake_rand_set_callback(ptr noundef %11, ptr noundef null)
  %12 = call ptr @BN_new()
  store ptr %12, ptr %10, align 8, !tbaa !18
  %13 = call i32 @test_ptr(ptr noundef @.str, i32 noundef 44, ptr noundef @.str.4417, ptr noundef %12)
  %14 = icmp ne i32 %13, 0
  br i1 %14, label %15, label %46

15:                                               ; preds = %4
  %16 = load i32, ptr @fbytes.fbytes_counter, align 4, !tbaa !12
  %17 = call i32 @test_int_lt(ptr noundef @.str, i32 noundef 45, ptr noundef @.str.4418, ptr noundef @.str.4419, i32 noundef %16, i32 noundef 2)
  %18 = icmp ne i32 %17, 0
  br i1 %18, label %19, label %46

19:                                               ; preds = %15
  %20 = load i32, ptr @fbytes.fbytes_counter, align 4, !tbaa !12
  %21 = sext i32 %20 to i64
  %22 = getelementptr inbounds [2 x ptr], ptr @numbers, i64 0, i64 %21
  %23 = load ptr, ptr %22, align 8, !tbaa !16
  %24 = call i32 @BN_hex2bn(ptr noundef %10, ptr noundef %23)
  %25 = icmp ne i32 %24, 0
  %26 = zext i1 %25 to i32
  %27 = call i32 @test_true(ptr noundef @.str, i32 noundef 46, ptr noundef @.str.4420, i32 noundef %26)
  %28 = icmp ne i32 %27, 0
  br i1 %28, label %29, label %46

29:                                               ; preds = %19
  %30 = load ptr, ptr %10, align 8, !tbaa !18
  %31 = call i32 @BN_num_bits(ptr noundef %30)
  %32 = add nsw i32 %31, 7
  %33 = sdiv i32 %32, 8
  %34 = load i64, ptr %6, align 8, !tbaa !9
  %35 = trunc i64 %34 to i32
  %36 = call i32 @test_int_le(ptr noundef @.str, i32 noundef 48, ptr noundef @.str.4421, ptr noundef @.str.4422, i32 noundef %33, i32 noundef %35)
  %37 = icmp ne i32 %36, 0
  br i1 %37, label %38, label %46

38:                                               ; preds = %29
  %39 = load ptr, ptr %10, align 8, !tbaa !18
  %40 = load ptr, ptr %5, align 8, !tbaa !16
  %41 = load i64, ptr %6, align 8, !tbaa !9
  %42 = trunc i64 %41 to i32
  %43 = call i32 @BN_bn2binpad(ptr noundef %39, ptr noundef %40, i32 noundef %42)
  %44 = call i32 @test_int_gt(ptr noundef @.str, i32 noundef 49, ptr noundef @.str.4423, ptr noundef @.str.15, i32 noundef %43, i32 noundef 0)
  %45 = icmp ne i32 %44, 0
  br i1 %45, label %47, label %46

46:                                               ; preds = %38, %29, %19, %15, %4
  br label %53

47:                                               ; preds = %38
  %48 = load i32, ptr @fbytes.fbytes_counter, align 4, !tbaa !12
  %49 = add nsw i32 %48, 1
  %50 = sext i32 %49 to i64
  %51 = urem i64 %50, 2
  %52 = trunc i64 %51 to i32
  store i32 %52, ptr @fbytes.fbytes_counter, align 4, !tbaa !12
  store i32 1, ptr %9, align 4, !tbaa !12
  br label %53

53:                                               ; preds = %47, %46
  %54 = load ptr, ptr %10, align 8, !tbaa !18
  call void @BN_free(ptr noundef %54)
  %55 = load i32, ptr %9, align 4, !tbaa !12
  call void @llvm.lifetime.end.p0(i64 8, ptr %10) #4
  call void @llvm.lifetime.end.p0(i64 4, ptr %9) #4
  ret i32 %55
}