; Function Attrs: nounwind uwtable
define internal range(i32 0, 2) i32 @fbytes(ptr noundef %0, i64 noundef %1, ptr readnone captures(none) %2, ptr noundef %3) #0 {
  %5 = alloca ptr, align 8
  call void @llvm.lifetime.start.p0(i64 8, ptr nonnull %5) #5
  tail call void @fake_rand_set_callback(ptr noundef %3, ptr noundef null) #5
  %6 = tail call ptr @BN_new() #5
  store ptr %6, ptr %5, align 8, !tbaa !12
  %7 = tail call i32 @test_ptr(ptr noundef nonnull @.str, i32 noundef 44, ptr noundef nonnull @.str.4417, ptr noundef %6) #5
  %.not = icmp eq i32 %7, 0
  br i1 %.not, label %35, label %8

8:                                                ; preds = %4
  %9 = load i32, ptr @fbytes.fbytes_counter, align 4, !tbaa !14
  %10 = tail call i32 @test_int_lt(ptr noundef nonnull @.str, i32 noundef 45, ptr noundef nonnull @.str.4418, ptr noundef nonnull @.str.4419, i32 noundef %9, i32 noundef 2) #5
  %.not4 = icmp eq i32 %10, 0
  br i1 %.not4, label %35, label %11

11:                                               ; preds = %8
  %12 = load i32, ptr @fbytes.fbytes_counter, align 4, !tbaa !14
  %13 = zext nneg i32 %12 to i64
  %14 = getelementptr inbounds nuw [2 x ptr], ptr @numbers, i64 0, i64 %13
  %15 = load ptr, ptr %14, align 8, !tbaa !16
  %16 = call i32 @BN_hex2bn(ptr noundef nonnull %5, ptr noundef %15) #5
  %17 = icmp ne i32 %16, 0
  %18 = zext i1 %17 to i32
  %19 = call i32 @test_true(ptr noundef nonnull @.str, i32 noundef 46, ptr noundef nonnull @.str.4420, i32 noundef %18) #5
  %.not5 = icmp eq i32 %19, 0
  br i1 %.not5, label %35, label %20

20:                                               ; preds = %11
  %21 = load ptr, ptr %5, align 8, !tbaa !12
  %22 = call i32 @BN_num_bits(ptr noundef %21) #5
  %23 = add nsw i32 %22, 7
  %24 = sdiv i32 %23, 8
  %25 = trunc i64 %1 to i32
  %26 = call i32 @test_int_le(ptr noundef nonnull @.str, i32 noundef 48, ptr noundef nonnull @.str.4421, ptr noundef nonnull @.str.4422, i32 noundef %24, i32 noundef %25) #5
  %.not6 = icmp eq i32 %26, 0
  br i1 %.not6, label %35, label %27

27:                                               ; preds = %20
  %28 = load ptr, ptr %5, align 8, !tbaa !12
  %29 = call i32 @BN_bn2binpad(ptr noundef %28, ptr noundef %0, i32 noundef %25) #5
  %30 = call i32 @test_int_gt(ptr noundef nonnull @.str, i32 noundef 49, ptr noundef nonnull @.str.4423, ptr noundef nonnull @.str.15, i32 noundef %29, i32 noundef 0) #5
  %.not7 = icmp eq i32 %30, 0
  br i1 %.not7, label %35, label %31

31:                                               ; preds = %27
  %32 = load i32, ptr @fbytes.fbytes_counter, align 4, !tbaa !14
  %33 = and i32 %32, 1
  %34 = xor i32 %33, 1
  store i32 %34, ptr @fbytes.fbytes_counter, align 4, !tbaa !14
  br label %35

35:                                               ; preds = %4, %8, %11, %20, %27, %31
  %.0 = phi i32 [ 1, %31 ], [ 0, %27 ], [ 0, %20 ], [ 0, %11 ], [ 0, %8 ], [ 0, %4 ]
  %36 = load ptr, ptr %5, align 8, !tbaa !12
  call void @BN_free(ptr noundef %36) #5
  call void @llvm.lifetime.end.p0(i64 8, ptr nonnull %5) #5
  ret i32 %.0
}